ccopy_reg
_reconstructor
p0
(cconfig_check
NewMachine
p1
c__builtin__
object
p2
Ntp3
Rp4
(dp5
S'machine_lastchange'
p6
S'122183348'
p7
sS'machine_name'
p8
S'pynet-rtr1.twb-tech.com'
p9
sb.ccopy_reg
_reconstructor
p0
(cconfig_check
NewMachine
p1
c__builtin__
object
p2
Ntp3
Rp4
(dp5
S'machine_lastchange'
p6
S'131121305'
p7
sS'machine_name'
p8
S'pynet-rtr2.twb-tech.com'
p9
sb.